target datalayout = "e-m:e-p270:32:32-p271:32:32-p272:64:64-i64:64-i128:128-f80:128-n8:16:32:64-S128"
target triple = "x86_64-unknown-linux-gnu"

%class.btGImpactCollisionAlgorithm = type { %class.btActivatingCollisionAlgorithm, ptr, ptr, ptr, ptr, i32, i32, i32, i32 }
%class.btActivatingCollisionAlgorithm = type { %class.btCollisionAlgorithm }
%class.btCollisionAlgorithm = type { ptr, ptr }
%struct.btCollisionObjectWrapper = type { ptr, ptr, ptr, ptr, ptr, i32, i32 }
%class.btVector3 = type { [4 x float] }
%class.btCollisionShape = type { ptr, i32, ptr, i32, i32 }
%class.btTransform = type { %class.btMatrix3x3, %class.btVector3 }
%class.btMatrix3x3 = type { [3 x %class.btVector3] }
%class.btManifoldResult = type <{ %"struct.btDiscreteCollisionDetectorInterface::Result", ptr, ptr, ptr, i32, i32, i32, i32, float, [4 x i8] }>
%"struct.btDiscreteCollisionDetectorInterface::Result" = type { ptr }
%class.btPersistentManifold = type { %struct.btTypedObject, [4 x i8], [4 x %class.btManifoldPoint], ptr, ptr, i32, float, float, i32, i32, i32 }
%struct.btTypedObject = type { i32 }
%class.btManifoldPoint = type <{ %class.btVector3, %class.btVector3, %class.btVector3, %class.btVector3, %class.btVector3, float, float, float, float, float, i32, i32, i32, i32, [4 x i8], ptr, i32, float, float, float, float, float, float, %union.anon.20, %union.anon.21, float, i32, %class.btVector3, %class.btVector3, [4 x i8] }>
%union.anon.20 = type { float }
%union.anon.21 = type { float }
%class.btCollisionObject = type <{ ptr, %class.btTransform, %class.btTransform, %class.btVector3, %class.btVector3, %class.btVector3, i32, float, ptr, ptr, ptr, ptr, i32, i32, i32, i32, i32, float, float, float, float, float, float, float, i32, [4 x i8], ptr, i32, i32, i32, float, float, float, i32, [4 x i8], %class.btAlignedObjectArray.22, i32, %class.btVector3, [4 x i8] }>
%class.btAlignedObjectArray.22 = type <{ %class.btAlignedAllocator.23, [3 x i8], i32, i32, [4 x i8], ptr, i8, [7 x i8] }>
%class.btAlignedAllocator.23 = type { i8 }

; Function Attrs: mustprogress nounwind uwtable
define linkonce_odr dso_local noundef nonnull align 4 dereferenceable(64) ptr @_ZNK17btCollisionObject17getWorldTransformEv(ptr noundef nonnull align 8 dereferenceable(372) %this) #1 comdat align 2 {
entry:
  %this.addr = alloca ptr, align 8
  store ptr %this, ptr %this.addr, align 8
  %this1 = load ptr, ptr %this.addr, align 8
  %m_worldTransform = getelementptr inbounds %class.btCollisionObject, ptr %this1, i32 0, i32 1
  ret ptr %m_worldTransform
}

; Function Attrs: mustprogress nounwind uwtable
define linkonce_odr dso_local noundef ptr @_ZNK24btCollisionObjectWrapper18getCollisionObjectEv(ptr noundef nonnull align 8 dereferenceable(48) %this) #1 comdat align 2 {
entry:
  %this.addr = alloca ptr, align 8
  store ptr %this, ptr %this.addr, align 8
  %this1 = load ptr, ptr %this.addr, align 8
  %m_collisionObject = getelementptr inbounds %struct.btCollisionObjectWrapper, ptr %this1, i32 0, i32 2
  %0 = load ptr, ptr %m_collisionObject, align 8
  ret ptr %0
}

; Function Attrs: mustprogress nounwind uwtable
define linkonce_odr dso_local noundef ptr @_ZNK20btPersistentManifold8getBody0Ev(ptr noundef nonnull align 8 dereferenceable(880) %this) #1 comdat align 2 {
entry:
  %this.addr = alloca ptr, align 8
  store ptr %this, ptr %this.addr, align 8
  %this1 = load ptr, ptr %this.addr, align 8
  %m_body0 = getelementptr inbounds %class.btPersistentManifold, ptr %this1, i32 0, i32 3
  %0 = load ptr, ptr %m_body0, align 8
  ret ptr %0
}

; Function Attrs: mustprogress nounwind uwtable
define linkonce_odr dso_local noundef i32 @_ZNK20btPersistentManifold14getNumContactsEv(ptr noundef nonnull align 8 dereferenceable(880) %this) #1 comdat align 2 {
entry:
  %this.addr = alloca ptr, align 8
  store ptr %this, ptr %this.addr, align 8
  %this1 = load ptr, ptr %this.addr, align 8
  %m_cachedPoints = getelementptr inbounds %class.btPersistentManifold, ptr %this1, i32 0, i32 5
  %0 = load i32, ptr %m_cachedPoints, align 8
  ret i32 %0
}

; Function Attrs: mustprogress uwtable
define linkonce_odr dso_local void @_ZN27btGImpactCollisionAlgorithm22destroyConvexAlgorithmEv(ptr noundef nonnull align 8 dereferenceable(64) %this) #2 comdat align 2 {
entry:
  %this.addr = alloca ptr, align 8
  store ptr %this, ptr %this.addr, align 8
  %this1 = load ptr, ptr %this.addr, align 8
  %m_convex_algorithm = getelementptr inbounds %class.btGImpactCollisionAlgorithm, ptr %this1, i32 0, i32 1
  %0 = load ptr, ptr %m_convex_algorithm, align 8
  %tobool = icmp ne ptr %0, null
  br i1 %tobool, label %if.then, label %if.end

if.then:                                          ; preds = %entry
  %m_convex_algorithm2 = getelementptr inbounds %class.btGImpactCollisionAlgorithm, ptr %this1, i32 0, i32 1
  %1 = load ptr, ptr %m_convex_algorithm2, align 8
  %vtable = load ptr, ptr %1, align 8
  %vfn = getelementptr inbounds ptr, ptr %vtable, i64 0
  %2 = load ptr, ptr %vfn, align 8
  call void %2(ptr noundef nonnull align 8 dereferenceable(16) %1) #9
  %m_dispatcher = getelementptr inbounds %class.btCollisionAlgorithm, ptr %this1, i32 0, i32 1
  %3 = load ptr, ptr %m_dispatcher, align 8
  %m_convex_algorithm3 = getelementptr inbounds %class.btGImpactCollisionAlgorithm, ptr %this1, i32 0, i32 1
  %4 = load ptr, ptr %m_convex_algorithm3, align 8
  %vtable4 = load ptr, ptr %3, align 8
  %vfn5 = getelementptr inbounds ptr, ptr %vtable4, i64 15
  %5 = load ptr, ptr %vfn5, align 8
  call void %5(ptr noundef nonnull align 8 dereferenceable(8) %3, ptr noundef %4)
  %m_convex_algorithm6 = getelementptr inbounds %class.btGImpactCollisionAlgorithm, ptr %this1, i32 0, i32 1
  store ptr null, ptr %m_convex_algorithm6, align 8
  br label %if.end

if.end:                                           ; preds = %if.then, %entry
  ret void
}

; Function Attrs: mustprogress uwtable
define linkonce_odr dso_local void @_ZN27btGImpactCollisionAlgorithm23destroyContactManifoldsEv(ptr noundef nonnull align 8 dereferenceable(64) %this) #2 comdat align 2 {
entry:
  %this.addr = alloca ptr, align 8
  store ptr %this, ptr %this.addr, align 8
  %this1 = load ptr, ptr %this.addr, align 8
  %m_manifoldPtr = getelementptr inbounds %class.btGImpactCollisionAlgorithm, ptr %this1, i32 0, i32 2
  %0 = load ptr, ptr %m_manifoldPtr, align 8
  %cmp = icmp eq ptr %0, null
  br i1 %cmp, label %if.then, label %if.end

if.then:                                          ; preds = %entry
  br label %return

if.end:                                           ; preds = %entry
  %m_dispatcher = getelementptr inbounds %class.btCollisionAlgorithm, ptr %this1, i32 0, i32 1
  %1 = load ptr, ptr %m_dispatcher, align 8
  %m_manifoldPtr2 = getelementptr inbounds %class.btGImpactCollisionAlgorithm, ptr %this1, i32 0, i32 2
  %2 = load ptr, ptr %m_manifoldPtr2, align 8
  %vtable = load ptr, ptr %1, align 8
  %vfn = getelementptr inbounds ptr, ptr %vtable, i64 4
  %3 = load ptr, ptr %vfn, align 8
  call void %3(ptr noundef nonnull align 8 dereferenceable(8) %1, ptr noundef %2)
  %m_manifoldPtr3 = getelementptr inbounds %class.btGImpactCollisionAlgorithm, ptr %this1, i32 0, i32 2
  store ptr null, ptr %m_manifoldPtr3, align 8
  br label %return

return:                                           ; preds = %if.end, %if.then
  ret void
}

; Function Attrs: mustprogress uwtable
define linkonce_odr dso_local void @_ZN16btManifoldResult20refreshContactPointsEv(ptr noundef nonnull align 8 dereferenceable(52) %this) #2 comdat align 2 {
entry:
  %this.addr = alloca ptr, align 8
  %isSwapped = alloca i8, align 1
  store ptr %this, ptr %this.addr, align 8
  %this1 = load ptr, ptr %this.addr, align 8
  %m_manifoldPtr = getelementptr inbounds %class.btManifoldResult, ptr %this1, i32 0, i32 1
  %0 = load ptr, ptr %m_manifoldPtr, align 8
  %call = call noundef i32 @_ZNK20btPersistentManifold14getNumContactsEv(ptr noundef nonnull align 8 dereferenceable(880) %0)
  %tobool = icmp ne i32 %call, 0
  br i1 %tobool, label %if.end, label %if.then

if.then:                                          ; preds = %entry
  br label %if.end20

if.end:                                           ; preds = %entry
  %m_manifoldPtr2 = getelementptr inbounds %class.btManifoldResult, ptr %this1, i32 0, i32 1
  %1 = load ptr, ptr %m_manifoldPtr2, align 8
  %call3 = call noundef ptr @_ZNK20btPersistentManifold8getBody0Ev(ptr noundef nonnull align 8 dereferenceable(880) %1)
  %m_body0Wrap = getelementptr inbounds %class.btManifoldResult, ptr %this1, i32 0, i32 2
  %2 = load ptr, ptr %m_body0Wrap, align 8
  %call4 = call noundef ptr @_ZNK24btCollisionObjectWrapper18getCollisionObjectEv(ptr noundef nonnull align 8 dereferenceable(48) %2)
  %cmp = icmp ne ptr %call3, %call4
  %frombool = zext i1 %cmp to i8
  store i8 %frombool, ptr %isSwapped, align 1
  %3 = load i8, ptr %isSwapped, align 1
  %tobool5 = trunc i8 %3 to i1
  br i1 %tobool5, label %if.then6, label %if.else

if.then6:                                         ; preds = %if.end
  %m_manifoldPtr7 = getelementptr inbounds %class.btManifoldResult, ptr %this1, i32 0, i32 1
  %4 = load ptr, ptr %m_manifoldPtr7, align 8
  %m_body1Wrap = getelementptr inbounds %class.btManifoldResult, ptr %this1, i32 0, i32 3
  %5 = load ptr, ptr %m_body1Wrap, align 8
  %call8 = call noundef ptr @_ZNK24btCollisionObjectWrapper18getCollisionObjectEv(ptr noundef nonnull align 8 dereferenceable(48) %5)
  %call9 = call noundef nonnull align 4 dereferenceable(64) ptr @_ZNK17btCollisionObject17getWorldTransformEv(ptr noundef nonnull align 8 dereferenceable(372) %call8)
  %m_body0Wrap10 = getelementptr inbounds %class.btManifoldResult, ptr %this1, i32 0, i32 2
  %6 = load ptr, ptr %m_body0Wrap10, align 8
  %call11 = call noundef ptr @_ZNK24btCollisionObjectWrapper18getCollisionObjectEv(ptr noundef nonnull align 8 dereferenceable(48) %6)
  %call12 = call noundef nonnull align 4 dereferenceable(64) ptr @_ZNK17btCollisionObject17getWorldTransformEv(ptr noundef nonnull align 8 dereferenceable(372) %call11)
  call void @_ZN20btPersistentManifold20refreshContactPointsERK11btTransformS2_(ptr noundef nonnull align 8 dereferenceable(880) %4, ptr noundef nonnull align 4 dereferenceable(64) %call9, ptr noundef nonnull align 4 dereferenceable(64) %call12)
  br label %if.end20

if.else:                                          ; preds = %if.end
  %m_manifoldPtr13 = getelementptr inbounds %class.btManifoldResult, ptr %this1, i32 0, i32 1
  %7 = load ptr, ptr %m_manifoldPtr13, align 8
  %m_body0Wrap14 = getelementptr inbounds %class.btManifoldResult, ptr %this1, i32 0, i32 2
  %8 = load ptr, ptr %m_body0Wrap14, align 8
  %call15 = call noundef ptr @_ZNK24btCollisionObjectWrapper18getCollisionObjectEv(ptr noundef nonnull align 8 dereferenceable(48) %8)
  %call16 = call noundef nonnull align 4 dereferenceable(64) ptr @_ZNK17btCollisionObject17getWorldTransformEv(ptr noundef nonnull align 8 dereferenceable(372) %call15)
  %m_body1Wrap17 = getelementptr inbounds %class.btManifoldResult, ptr %this1, i32 0, i32 3
  %9 = load ptr, ptr %m_body1Wrap17, align 8
  %call18 = call noundef ptr @_ZNK24btCollisionObjectWrapper18getCollisionObjectEv(ptr noundef nonnull align 8 dereferenceable(48) %9)
  %call19 = call noundef nonnull align 4 dereferenceable(64) ptr @_ZNK17btCollisionObject17getWorldTransformEv(ptr noundef nonnull align 8 dereferenceable(372) %call18)
  call void @_ZN20btPersistentManifold20refreshContactPointsERK11btTransformS2_(ptr noundef nonnull align 8 dereferenceable(880) %7, ptr noundef nonnull align 4 dereferenceable(64) %call16, ptr noundef nonnull align 4 dereferenceable(64) %call19)
  br label %if.end20

if.end20:                                         ; preds = %if.else, %if.then6, %if.then
  ret void
}

; Function Attrs: mustprogress nounwind uwtable
define linkonce_odr dso_local noundef ptr @_ZN27btGImpactCollisionAlgorithm15getLastManifoldEv(ptr noundef nonnull align 8 dereferenceable(64) %this) #1 comdat align 2 {
entry:
  %this.addr = alloca ptr, align 8
  store ptr %this, ptr %this.addr, align 8
  %this1 = load ptr, ptr %this.addr, align 8
  %m_manifoldPtr = getelementptr inbounds %class.btGImpactCollisionAlgorithm, ptr %this1, i32 0, i32 2
  %0 = load ptr, ptr %m_manifoldPtr, align 8
  ret ptr %0
}

; Function Attrs: mustprogress nounwind uwtable
define linkonce_odr dso_local noundef i32 @_ZNK16btCollisionShape12getShapeTypeEv(ptr noundef nonnull align 8 dereferenceable(32) %this) #1 comdat align 2 {
entry:
  %this.addr = alloca ptr, align 8
  store ptr %this, ptr %this.addr, align 8
  %this1 = load ptr, ptr %this.addr, align 8
  %m_shapeType = getelementptr inbounds %class.btCollisionShape, ptr %this1, i32 0, i32 1
  %0 = load i32, ptr %m_shapeType, align 8
  ret i32 %0
}

; Function Attrs: mustprogress nounwind uwtable
define linkonce_odr dso_local noundef ptr @_ZNK24btCollisionObjectWrapper17getCollisionShapeEv(ptr noundef nonnull align 8 dereferenceable(48) %this) #1 comdat align 2 {
entry:
  %this.addr = alloca ptr, align 8
  store ptr %this, ptr %this.addr, align 8
  %this1 = load ptr, ptr %this.addr, align 8
  %m_shape = getelementptr inbounds %struct.btCollisionObjectWrapper, ptr %this1, i32 0, i32 1
  %0 = load ptr, ptr %m_shape, align 8
  ret ptr %0
}

; Function Attrs: mustprogress uwtable
define linkonce_odr dso_local void @_ZN27btGImpactCollisionAlgorithm10clearCacheEv(ptr noundef nonnull align 8 dereferenceable(64) %this) #2 comdat align 2 {
entry:
  %this.addr = alloca ptr, align 8
  store ptr %this, ptr %this.addr, align 8
  %this1 = load ptr, ptr %this.addr, align 8
  call void @_ZN27btGImpactCollisionAlgorithm23destroyContactManifoldsEv(ptr noundef nonnull align 8 dereferenceable(64) %this1)
  call void @_ZN27btGImpactCollisionAlgorithm22destroyConvexAlgorithmEv(ptr noundef nonnull align 8 dereferenceable(64) %this1)
  %m_triface0 = getelementptr inbounds %class.btGImpactCollisionAlgorithm, ptr %this1, i32 0, i32 5
  store i32 -1, ptr %m_triface0, align 8
  %m_part0 = getelementptr inbounds %class.btGImpactCollisionAlgorithm, ptr %this1, i32 0, i32 6
  store i32 -1, ptr %m_part0, align 4
  %m_triface1 = getelementptr inbounds %class.btGImpactCollisionAlgorithm, ptr %this1, i32 0, i32 7
  store i32 -1, ptr %m_triface1, align 8
  %m_part1 = getelementptr inbounds %class.btGImpactCollisionAlgorithm, ptr %this1, i32 0, i32 8
  store i32 -1, ptr %m_part1, align 4
  ret void
}

; Function Attrs: mustprogress uwtable
define dso_local void @_ZN27btGImpactCollisionAlgorithm16processCollisionEPK24btCollisionObjectWrapperS2_RK16btDispatcherInfoP16btManifoldResult(ptr noundef nonnull align 8 dereferenceable(64) %this, ptr noundef %body0Wrap, ptr noundef %body1Wrap, ptr noundef nonnull align 8 dereferenceable(49) %dispatchInfo, ptr noundef %resultOut) unnamed_addr #2 align 2 {
entry:
  %this.addr = alloca ptr, align 8
  %body0Wrap.addr = alloca ptr, align 8
  %body1Wrap.addr = alloca ptr, align 8
  %dispatchInfo.addr = alloca ptr, align 8
  %resultOut.addr = alloca ptr, align 8
  %gimpactshape0 = alloca ptr, align 8
  %gimpactshape1 = alloca ptr, align 8
  store ptr %this, ptr %this.addr, align 8
  store ptr %body0Wrap, ptr %body0Wrap.addr, align 8
  store ptr %body1Wrap, ptr %body1Wrap.addr, align 8
  store ptr %dispatchInfo, ptr %dispatchInfo.addr, align 8
  store ptr %resultOut, ptr %resultOut.addr, align 8
  %this1 = load ptr, ptr %this.addr, align 8
  call void @_ZN27btGImpactCollisionAlgorithm10clearCacheEv(ptr noundef nonnull align 8 dereferenceable(64) %this1)
  %0 = load ptr, ptr %resultOut.addr, align 8
  %m_resultOut = getelementptr inbounds %class.btGImpactCollisionAlgorithm, ptr %this1, i32 0, i32 3
  store ptr %0, ptr %m_resultOut, align 8
  %1 = load ptr, ptr %dispatchInfo.addr, align 8
  %m_dispatchInfo = getelementptr inbounds %class.btGImpactCollisionAlgorithm, ptr %this1, i32 0, i32 4
  store ptr %1, ptr %m_dispatchInfo, align 8
  %2 = load ptr, ptr %body0Wrap.addr, align 8
  %call = call noundef ptr @_ZNK24btCollisionObjectWrapper17getCollisionShapeEv(ptr noundef nonnull align 8 dereferenceable(48) %2)
  %call2 = call noundef i32 @_ZNK16btCollisionShape12getShapeTypeEv(ptr noundef nonnull align 8 dereferenceable(32) %call)
  %cmp = icmp eq i32 %call2, 25
  br i1 %cmp, label %if.then, label %if.else10

if.then:                                          ; preds = %entry
  %3 = load ptr, ptr %body0Wrap.addr, align 8
  %call3 = call noundef ptr @_ZNK24btCollisionObjectWrapper17getCollisionShapeEv(ptr noundef nonnull align 8 dereferenceable(48) %3)
  store ptr %call3, ptr %gimpactshape0, align 8
  %4 = load ptr, ptr %body1Wrap.addr, align 8
  %call4 = call noundef ptr @_ZNK24btCollisionObjectWrapper17getCollisionShapeEv(ptr noundef nonnull align 8 dereferenceable(48) %4)
  %call5 = call noundef i32 @_ZNK16btCollisionShape12getShapeTypeEv(ptr noundef nonnull align 8 dereferenceable(32) %call4)
  %cmp6 = icmp eq i32 %call5, 25
  br i1 %cmp6, label %if.then7, label %if.else

if.then7:                                         ; preds = %if.then
  %5 = load ptr, ptr %body1Wrap.addr, align 8
  %call8 = call noundef ptr @_ZNK24btCollisionObjectWrapper17getCollisionShapeEv(ptr noundef nonnull align 8 dereferenceable(48) %5)
  store ptr %call8, ptr %gimpactshape1, align 8
  %6 = load ptr, ptr %body0Wrap.addr, align 8
  %7 = load ptr, ptr %body1Wrap.addr, align 8
  %8 = load ptr, ptr %gimpactshape0, align 8
  %9 = load ptr, ptr %gimpactshape1, align 8
  call void @_ZN27btGImpactCollisionAlgorithm18gimpact_vs_gimpactEPK24btCollisionObjectWrapperS2_PK23btGImpactShapeInterfaceS5_(ptr noundef nonnull align 8 dereferenceable(64) %this1, ptr noundef %6, ptr noundef %7, ptr noundef %8, ptr noundef %9)
  br label %if.end

if.else:                                          ; preds = %if.then
  %10 = load ptr, ptr %body0Wrap.addr, align 8
  %11 = load ptr, ptr %body1Wrap.addr, align 8
  %12 = load ptr, ptr %gimpactshape0, align 8
  %13 = load ptr, ptr %body1Wrap.addr, align 8
  %call9 = call noundef ptr @_ZNK24btCollisionObjectWrapper17getCollisionShapeEv(ptr noundef nonnull align 8 dereferenceable(48) %13)
  call void @_ZN27btGImpactCollisionAlgorithm16gimpact_vs_shapeEPK24btCollisionObjectWrapperS2_PK23btGImpactShapeInterfacePK16btCollisionShapeb(ptr noundef nonnull align 8 dereferenceable(64) %this1, ptr noundef %10, ptr noundef %11, ptr noundef %12, ptr noundef %call9, i1 noundef zeroext false)
  br label %if.end

if.end:                                           ; preds = %if.else, %if.then7
  br label %if.end18

if.else10:                                        ; preds = %entry
  %14 = load ptr, ptr %body1Wrap.addr, align 8
  %call11 = call noundef ptr @_ZNK24btCollisionObjectWrapper17getCollisionShapeEv(ptr noundef nonnull align 8 dereferenceable(48) %14)
  %call12 = call noundef i32 @_ZNK16btCollisionShape12getShapeTypeEv(ptr noundef nonnull align 8 dereferenceable(32) %call11)
  %cmp13 = icmp eq i32 %call12, 25
  br i1 %cmp13, label %if.then14, label %if.end17

if.then14:                                        ; preds = %if.else10
  %15 = load ptr, ptr %body1Wrap.addr, align 8
  %call15 = call noundef ptr @_ZNK24btCollisionObjectWrapper17getCollisionShapeEv(ptr noundef nonnull align 8 dereferenceable(48) %15)
  store ptr %call15, ptr %gimpactshape1, align 8
  %16 = load ptr, ptr %body1Wrap.addr, align 8
  %17 = load ptr, ptr %body0Wrap.addr, align 8
  %18 = load ptr, ptr %gimpactshape1, align 8
  %19 = load ptr, ptr %body0Wrap.addr, align 8
  %call16 = call noundef ptr @_ZNK24btCollisionObjectWrapper17getCollisionShapeEv(ptr noundef nonnull align 8 dereferenceable(48) %19)
  call void @_ZN27btGImpactCollisionAlgorithm16gimpact_vs_shapeEPK24btCollisionObjectWrapperS2_PK23btGImpactShapeInterfacePK16btCollisionShapeb(ptr noundef nonnull align 8 dereferenceable(64) %this1, ptr noundef %16, ptr noundef %17, ptr noundef %18, ptr noundef %call16, i1 noundef zeroext true)
  br label %if.end17

if.end17:                                         ; preds = %if.then14, %if.else10
  br label %if.end18

if.end18:                                         ; preds = %if.end17, %if.end
  %call19 = call noundef ptr @_ZN27btGImpactCollisionAlgorithm15getLastManifoldEv(ptr noundef nonnull align 8 dereferenceable(64) %this1)
  %tobool = icmp ne ptr %call19, null
  br i1 %tobool, label %if.then20, label %if.end22

if.then20:                                        ; preds = %if.end18
  %m_resultOut21 = getelementptr inbounds %class.btGImpactCollisionAlgorithm, ptr %this1, i32 0, i32 3
  %20 = load ptr, ptr %m_resultOut21, align 8
  call void @_ZN16btManifoldResult20refreshContactPointsEv(ptr noundef nonnull align 8 dereferenceable(52) %20)
  br label %if.end22

if.end22:                                         ; preds = %if.then20, %if.end18
  ret void
}