; Function Attrs: mustprogress uwtable
define dso_local void @_ZN27btGImpactCollisionAlgorithm16processCollisionEPK24btCollisionObjectWrapperS2_RK16btDispatcherInfoP16btManifoldResult(ptr noundef nonnull align 8 dereferenceable(64) %this, ptr noundef %body0Wrap, ptr noundef %body1Wrap, ptr noundef nonnull align 8 dereferenceable(49) %dispatchInfo, ptr noundef %resultOut) unnamed_addr #0 align 2 {
entry:
  %m_manifoldPtr.i.i = getelementptr inbounds i8, ptr %this, i64 24
  %0 = load ptr, ptr %m_manifoldPtr.i.i, align 8
  %cmp.i.i = icmp eq ptr %0, null
  br i1 %cmp.i.i, label %_ZN27btGImpactCollisionAlgorithm23destroyContactManifoldsEv.exit.i, label %if.end.i.i

if.end.i.i:                                       ; preds = %entry
  %m_dispatcher.i.i = getelementptr inbounds i8, ptr %this, i64 8
  %1 = load ptr, ptr %m_dispatcher.i.i, align 8
  %vtable.i.i = load ptr, ptr %1, align 8
  %vfn.i.i = getelementptr inbounds i8, ptr %vtable.i.i, i64 32
  %2 = load ptr, ptr %vfn.i.i, align 8
  tail call void %2(ptr noundef nonnull align 8 dereferenceable(8) %1, ptr noundef nonnull %0)
  store ptr null, ptr %m_manifoldPtr.i.i, align 8
  br label %_ZN27btGImpactCollisionAlgorithm23destroyContactManifoldsEv.exit.i

_ZN27btGImpactCollisionAlgorithm23destroyContactManifoldsEv.exit.i: ; preds = %if.end.i.i, %entry
  %m_convex_algorithm.i.i = getelementptr inbounds i8, ptr %this, i64 16
  %3 = load ptr, ptr %m_convex_algorithm.i.i, align 8
  %tobool.not.i.i = icmp eq ptr %3, null
  br i1 %tobool.not.i.i, label %_ZN27btGImpactCollisionAlgorithm10clearCacheEv.exit, label %if.then.i.i

if.then.i.i:                                      ; preds = %_ZN27btGImpactCollisionAlgorithm23destroyContactManifoldsEv.exit.i
  %vtable.i1.i = load ptr, ptr %3, align 8
  %4 = load ptr, ptr %vtable.i1.i, align 8
  tail call void %4(ptr noundef nonnull align 8 dereferenceable(16) %3) #14
  %m_dispatcher.i2.i = getelementptr inbounds i8, ptr %this, i64 8
  %5 = load ptr, ptr %m_dispatcher.i2.i, align 8
  %6 = load ptr, ptr %m_convex_algorithm.i.i, align 8
  %vtable4.i.i = load ptr, ptr %5, align 8
  %vfn5.i.i = getelementptr inbounds i8, ptr %vtable4.i.i, i64 120
  %7 = load ptr, ptr %vfn5.i.i, align 8
  tail call void %7(ptr noundef nonnull align 8 dereferenceable(8) %5, ptr noundef %6)
  store ptr null, ptr %m_convex_algorithm.i.i, align 8
  br label %_ZN27btGImpactCollisionAlgorithm10clearCacheEv.exit

_ZN27btGImpactCollisionAlgorithm10clearCacheEv.exit: ; preds = %_ZN27btGImpactCollisionAlgorithm23destroyContactManifoldsEv.exit.i, %if.then.i.i
  %m_triface0.i = getelementptr inbounds i8, ptr %this, i64 48
  tail call void @llvm.memset.p0.i64(ptr noundef nonnull align 8 dereferenceable(16) %m_triface0.i, i8 -1, i64 16, i1 false)
  %m_resultOut = getelementptr inbounds i8, ptr %this, i64 32
  store ptr %resultOut, ptr %m_resultOut, align 8
  %m_dispatchInfo = getelementptr inbounds i8, ptr %this, i64 40
  store ptr %dispatchInfo, ptr %m_dispatchInfo, align 8
  %m_shape.i = getelementptr inbounds i8, ptr %body0Wrap, i64 8
  %8 = load ptr, ptr %m_shape.i, align 8
  %m_shapeType.i = getelementptr inbounds i8, ptr %8, i64 8
  %9 = load i32, ptr %m_shapeType.i, align 8
  %cmp = icmp eq i32 %9, 25
  %m_shape.i16 = getelementptr inbounds i8, ptr %body1Wrap, i64 8
  %10 = load ptr, ptr %m_shape.i16, align 8
  %m_shapeType.i17 = getelementptr inbounds i8, ptr %10, i64 8
  %11 = load i32, ptr %m_shapeType.i17, align 8
  %cmp6 = icmp eq i32 %11, 25
  br i1 %cmp, label %if.then, label %if.else10

if.then:                                          ; preds = %_ZN27btGImpactCollisionAlgorithm10clearCacheEv.exit
  br i1 %cmp6, label %if.then7, label %if.else

if.then7:                                         ; preds = %if.then
  tail call void @_ZN27btGImpactCollisionAlgorithm18gimpact_vs_gimpactEPK24btCollisionObjectWrapperS2_PK23btGImpactShapeInterfaceS5_(ptr noundef nonnull align 8 dereferenceable(64) %this, ptr noundef nonnull %body0Wrap, ptr noundef nonnull %body1Wrap, ptr noundef nonnull %8, ptr noundef nonnull %10)
  br label %if.end18

if.else:                                          ; preds = %if.then
  tail call void @_ZN27btGImpactCollisionAlgorithm16gimpact_vs_shapeEPK24btCollisionObjectWrapperS2_PK23btGImpactShapeInterfacePK16btCollisionShapeb(ptr noundef nonnull align 8 dereferenceable(64) %this, ptr noundef nonnull %body0Wrap, ptr noundef nonnull %body1Wrap, ptr noundef nonnull %8, ptr noundef nonnull %10, i1 noundef zeroext false)
  br label %if.end18

if.else10:                                        ; preds = %_ZN27btGImpactCollisionAlgorithm10clearCacheEv.exit
  br i1 %cmp6, label %if.then14, label %if.end18

if.then14:                                        ; preds = %if.else10
  tail call void @_ZN27btGImpactCollisionAlgorithm16gimpact_vs_shapeEPK24btCollisionObjectWrapperS2_PK23btGImpactShapeInterfacePK16btCollisionShapeb(ptr noundef nonnull align 8 dereferenceable(64) %this, ptr noundef nonnull %body1Wrap, ptr noundef nonnull %body0Wrap, ptr noundef nonnull %10, ptr noundef nonnull %8, i1 noundef zeroext true)
  br label %if.end18

if.end18:                                         ; preds = %if.else10, %if.then14, %if.then7, %if.else
  %12 = load ptr, ptr %m_manifoldPtr.i.i, align 8
  %tobool.not = icmp eq ptr %12, null
  br i1 %tobool.not, label %if.end22, label %if.then20

if.then20:                                        ; preds = %if.end18
  %13 = load ptr, ptr %m_resultOut, align 8
  %m_manifoldPtr.i24 = getelementptr inbounds i8, ptr %13, i64 8
  %14 = load ptr, ptr %m_manifoldPtr.i24, align 8
  %m_cachedPoints.i.i = getelementptr inbounds i8, ptr %14, i64 856
  %15 = load i32, ptr %m_cachedPoints.i.i, align 8
  %tobool.not.i = icmp eq i32 %15, 0
  br i1 %tobool.not.i, label %if.end22, label %if.end.i

if.end.i:                                         ; preds = %if.then20
  %m_body0.i.i = getelementptr inbounds i8, ptr %14, i64 840
  %16 = load ptr, ptr %m_body0.i.i, align 8
  %m_body0Wrap.i = getelementptr inbounds i8, ptr %13, i64 16
  %17 = load ptr, ptr %m_body0Wrap.i, align 8
  %m_collisionObject.i.i = getelementptr inbounds i8, ptr %17, i64 16
  %18 = load ptr, ptr %m_collisionObject.i.i, align 8
  %cmp.not.i = icmp eq ptr %16, %18
  %m_body1Wrap17.i = getelementptr inbounds i8, ptr %13, i64 24
  %19 = load ptr, ptr %m_body1Wrap17.i, align 8
  %m_collisionObject.i6.i = getelementptr inbounds i8, ptr %19, i64 16
  %20 = load ptr, ptr %m_collisionObject.i6.i, align 8
  %. = select i1 %cmp.not.i, ptr %20, ptr %18
  %.25 = select i1 %cmp.not.i, ptr %16, ptr %20
  %m_worldTransform.i5.sink.i = getelementptr inbounds i8, ptr %.25, i64 8
  %m_worldTransform.i7.i = getelementptr inbounds i8, ptr %., i64 8
  tail call void @_ZN20btPersistentManifold20refreshContactPointsERK11btTransformS2_(ptr noundef nonnull align 8 dereferenceable(880) %14, ptr noundef nonnull align 4 dereferenceable(64) %m_worldTransform.i5.sink.i, ptr noundef nonnull align 4 dereferenceable(64) %m_worldTransform.i7.i)
  br label %if.end22

if.end22:                                         ; preds = %if.end.i, %if.then20, %if.end18
  ret void
}